target datalayout = "e-m:e-p270:32:32-p271:32:32-p272:64:64-i64:64-i128:128-f80:128-n8:16:32:64-S128"
target triple = "x86_64-pc-linux-gnu"

%struct.epan_uat = type { ptr, i64, ptr, i8, ptr, i32, ptr, ptr, ptr, ptr, ptr, ptr, ptr, ptr, ptr, i32, ptr, ptr, ptr, i8, ptr, ptr, i8 }
%struct._GArray = type { ptr, i32 }

; Function Attrs: alwaysinline nounwind
define internal ptr @memcpy.inline(ptr noalias %0, ptr noalias %1, i64 %2) #7 {
  %4 = alloca ptr, align 8
  %5 = alloca ptr, align 8
  %6 = alloca i64, align 8
  store ptr %0, ptr %4, align 8
  store ptr %1, ptr %5, align 8
  store i64 %2, ptr %6, align 8
  %7 = load ptr, ptr %4, align 8
  %8 = load ptr, ptr %5, align 8
  %9 = load i64, ptr %6, align 8
  %10 = load ptr, ptr %4, align 8
  %11 = call i64 @llvm.objectsize.i64.p0(ptr %10, i1 false, i1 true, i1 true)
  %12 = call ptr @__memcpy_chk(ptr noundef %7, ptr noundef %8, i64 noundef %9, i64 noundef %11) #13
  ret ptr %12
}

; Function Attrs: null_pointer_is_valid sspstrong uwtable
define void @uat_swap(ptr noundef %0, i32 noundef %1, i32 noundef %2) #0 {
  %4 = alloca ptr, align 8
  %5 = alloca i32, align 4
  %6 = alloca i32, align 4
  %7 = alloca i64, align 8
  %8 = alloca ptr, align 8
  %9 = alloca i8, align 1
  %10 = alloca i32, align 4
  store ptr %0, ptr %4, align 8
  store i32 %1, ptr %5, align 4
  store i32 %2, ptr %6, align 4
  call void @llvm.lifetime.start.p0(i64 8, ptr %7) #13
  %11 = load ptr, ptr %4, align 8
  %12 = getelementptr inbounds nuw %struct.epan_uat, ptr %11, i32 0, i32 1
  %13 = load i64, ptr %12, align 8
  store i64 %13, ptr %7, align 8
  call void @llvm.lifetime.start.p0(i64 8, ptr %8) #13
  call void @llvm.lifetime.start.p0(i64 1, ptr %9) #13
  br label %14

14:                                               ; preds = %3
  br label %15

15:                                               ; preds = %14
  br label %16

16:                                               ; preds = %15
  %17 = load i32, ptr %5, align 4
  %18 = load i32, ptr %6, align 4
  %19 = icmp eq i32 %17, %18
  br i1 %19, label %20, label %21

20:                                               ; preds = %16
  store i32 1, ptr %10, align 4
  br label %126

21:                                               ; preds = %16
  %22 = load i64, ptr %7, align 8
  %23 = call noalias ptr @g_malloc(i64 noundef %22) #14
  store ptr %23, ptr %8, align 8
  %24 = load ptr, ptr %8, align 8
  %25 = load ptr, ptr %4, align 8
  %26 = getelementptr inbounds nuw %struct.epan_uat, ptr %25, i32 0, i32 17
  %27 = load ptr, ptr %26, align 8
  %28 = getelementptr inbounds nuw %struct._GArray, ptr %27, i32 0, i32 0
  %29 = load ptr, ptr %28, align 8
  %30 = load ptr, ptr %4, align 8
  %31 = getelementptr inbounds nuw %struct.epan_uat, ptr %30, i32 0, i32 1
  %32 = load i64, ptr %31, align 8
  %33 = load i32, ptr %5, align 4
  %34 = zext i32 %33 to i64
  %35 = mul i64 %32, %34
  %36 = getelementptr i8, ptr %29, i64 %35
  %37 = load i64, ptr %7, align 8
  %38 = call ptr @memcpy.inline(ptr noundef %24, ptr noundef %36, i64 noundef %37) #13
  %39 = load ptr, ptr %4, align 8
  %40 = getelementptr inbounds nuw %struct.epan_uat, ptr %39, i32 0, i32 17
  %41 = load ptr, ptr %40, align 8
  %42 = getelementptr inbounds nuw %struct._GArray, ptr %41, i32 0, i32 0
  %43 = load ptr, ptr %42, align 8
  %44 = load ptr, ptr %4, align 8
  %45 = getelementptr inbounds nuw %struct.epan_uat, ptr %44, i32 0, i32 1
  %46 = load i64, ptr %45, align 8
  %47 = load i32, ptr %5, align 4
  %48 = zext i32 %47 to i64
  %49 = mul i64 %46, %48
  %50 = getelementptr i8, ptr %43, i64 %49
  %51 = load ptr, ptr %4, align 8
  %52 = getelementptr inbounds nuw %struct.epan_uat, ptr %51, i32 0, i32 17
  %53 = load ptr, ptr %52, align 8
  %54 = getelementptr inbounds nuw %struct._GArray, ptr %53, i32 0, i32 0
  %55 = load ptr, ptr %54, align 8
  %56 = load ptr, ptr %4, align 8
  %57 = getelementptr inbounds nuw %struct.epan_uat, ptr %56, i32 0, i32 1
  %58 = load i64, ptr %57, align 8
  %59 = load i32, ptr %6, align 4
  %60 = zext i32 %59 to i64
  %61 = mul i64 %58, %60
  %62 = getelementptr i8, ptr %55, i64 %61
  %63 = load i64, ptr %7, align 8
  %64 = call ptr @memcpy.inline(ptr noundef %50, ptr noundef %62, i64 noundef %63) #13
  %65 = load ptr, ptr %4, align 8
  %66 = getelementptr inbounds nuw %struct.epan_uat, ptr %65, i32 0, i32 17
  %67 = load ptr, ptr %66, align 8
  %68 = getelementptr inbounds nuw %struct._GArray, ptr %67, i32 0, i32 0
  %69 = load ptr, ptr %68, align 8
  %70 = load ptr, ptr %4, align 8
  %71 = getelementptr inbounds nuw %struct.epan_uat, ptr %70, i32 0, i32 1
  %72 = load i64, ptr %71, align 8
  %73 = load i32, ptr %6, align 4
  %74 = zext i32 %73 to i64
  %75 = mul i64 %72, %74
  %76 = getelementptr i8, ptr %69, i64 %75
  %77 = load ptr, ptr %8, align 8
  %78 = load i64, ptr %7, align 8
  %79 = call ptr @memcpy.inline(ptr noundef %76, ptr noundef %77, i64 noundef %78) #13
  %80 = load ptr, ptr %8, align 8
  call void @g_free(ptr noundef %80)
  %81 = load ptr, ptr %4, align 8
  %82 = getelementptr inbounds nuw %struct.epan_uat, ptr %81, i32 0, i32 18
  %83 = load ptr, ptr %82, align 8
  %84 = getelementptr inbounds nuw %struct._GArray, ptr %83, i32 0, i32 0
  %85 = load ptr, ptr %84, align 8
  %86 = load i32, ptr %5, align 4
  %87 = zext i32 %86 to i64
  %88 = mul i64 1, %87
  %89 = getelementptr i8, ptr %85, i64 %88
  %90 = load i8, ptr %89, align 1, !range !6, !noundef !7
  %91 = trunc i8 %90 to i1
  %92 = zext i1 %91 to i8
  store i8 %92, ptr %9, align 1
  %93 = load ptr, ptr %4, align 8
  %94 = getelementptr inbounds nuw %struct.epan_uat, ptr %93, i32 0, i32 18
  %95 = load ptr, ptr %94, align 8
  %96 = getelementptr inbounds nuw %struct._GArray, ptr %95, i32 0, i32 0
  %97 = load ptr, ptr %96, align 8
  %98 = load i32, ptr %6, align 4
  %99 = zext i32 %98 to i64
  %100 = mul i64 1, %99
  %101 = getelementptr i8, ptr %97, i64 %100
  %102 = load i8, ptr %101, align 1, !range !6, !noundef !7
  %103 = trunc i8 %102 to i1
  %104 = load ptr, ptr %4, align 8
  %105 = getelementptr inbounds nuw %struct.epan_uat, ptr %104, i32 0, i32 18
  %106 = load ptr, ptr %105, align 8
  %107 = getelementptr inbounds nuw %struct._GArray, ptr %106, i32 0, i32 0
  %108 = load ptr, ptr %107, align 8
  %109 = load i32, ptr %5, align 4
  %110 = zext i32 %109 to i64
  %111 = mul i64 1, %110
  %112 = getelementptr i8, ptr %108, i64 %111
  %113 = zext i1 %103 to i8
  store i8 %113, ptr %112, align 1
  %114 = load i8, ptr %9, align 1, !range !6, !noundef !7
  %115 = trunc i8 %114 to i1
  %116 = load ptr, ptr %4, align 8
  %117 = getelementptr inbounds nuw %struct.epan_uat, ptr %116, i32 0, i32 18
  %118 = load ptr, ptr %117, align 8
  %119 = getelementptr inbounds nuw %struct._GArray, ptr %118, i32 0, i32 0
  %120 = load ptr, ptr %119, align 8
  %121 = load i32, ptr %6, align 4
  %122 = zext i32 %121 to i64
  %123 = mul i64 1, %122
  %124 = getelementptr i8, ptr %120, i64 %123
  %125 = zext i1 %115 to i8
  store i8 %125, ptr %124, align 1
  store i32 0, ptr %10, align 4
  br label %126

126:                                              ; preds = %21, %20
  call void @llvm.lifetime.end.p0(i64 1, ptr %9) #13
  call void @llvm.lifetime.end.p0(i64 8, ptr %8) #13
  call void @llvm.lifetime.end.p0(i64 8, ptr %7) #13
  %127 = load i32, ptr %10, align 4
  switch i32 %127, label %129 [
    i32 0, label %128
    i32 1, label %128
  ]

128:                                              ; preds = %126, %126
  ret void

129:                                              ; preds = %126
  unreachable
}

; Function Attrs: null_pointer_is_valid sspstrong uwtable
define void @uat_move_index(ptr noundef %0, i32 noundef %1, i32 noundef %2) #0 {
  %4 = alloca ptr, align 8
  %5 = alloca i32, align 4
  %6 = alloca i32, align 4
  %7 = alloca i32, align 4
  %8 = alloca i32, align 4
  store ptr %0, ptr %4, align 8
  store i32 %1, ptr %5, align 4
  store i32 %2, ptr %6, align 4
  call void @llvm.lifetime.start.p0(i64 4, ptr %7) #13
  store i32 1, ptr %7, align 4
  call void @llvm.lifetime.start.p0(i64 4, ptr %8) #13
  %9 = load i32, ptr %5, align 4
  store i32 %9, ptr %8, align 4
  %10 = load i32, ptr %5, align 4
  %11 = load i32, ptr %6, align 4
  %12 = icmp ugt i32 %10, %11
  br i1 %12, label %13, label %14

13:                                               ; preds = %3
  store i32 -1, ptr %7, align 4
  br label %14

14:                                               ; preds = %13, %3
  br label %15

15:                                               ; preds = %19, %14
  %16 = load i32, ptr %8, align 4
  %17 = load i32, ptr %6, align 4
  %18 = icmp ne i32 %16, %17
  br i1 %18, label %19, label %28

19:                                               ; preds = %15
  %20 = load ptr, ptr %4, align 8
  %21 = load i32, ptr %8, align 4
  %22 = load i32, ptr %8, align 4
  %23 = load i32, ptr %7, align 4
  %24 = add i32 %22, %23
  call void @uat_swap(ptr noundef %20, i32 noundef %21, i32 noundef %24)
  %25 = load i32, ptr %7, align 4
  %26 = load i32, ptr %8, align 4
  %27 = add i32 %26, %25
  store i32 %27, ptr %8, align 4
  br label %15, !llvm.loop !12

28:                                               ; preds = %15
  call void @llvm.lifetime.end.p0(i64 4, ptr %8) #13
  call void @llvm.lifetime.end.p0(i64 4, ptr %7) #13
  ret void
}