; Function Attrs: null_pointer_is_valid sspstrong uwtable
define void @uat_move_index(ptr noundef readonly captures(none) %0, i32 noundef %1, i32 noundef %2) local_unnamed_addr #0 {
  %4 = icmp ugt i32 %1, %2
  %spec.select = select i1 %4, i32 -1, i32 1
  %.not11 = icmp eq i32 %1, %2
  br i1 %.not11, label %._crit_edge, label %.lr.ph

.lr.ph:                                           ; preds = %3
  %5 = getelementptr inbounds nuw i8, ptr %0, i64 8
  %6 = getelementptr inbounds nuw i8, ptr %0, i64 136
  %7 = getelementptr inbounds nuw i8, ptr %0, i64 144
  br label %8

8:                                                ; preds = %.lr.ph, %8
  %.012 = phi i32 [ %1, %.lr.ph ], [ %9, %8 ]
  %9 = add i32 %.012, %spec.select
  %10 = load i64, ptr %5, align 8
  %11 = tail call noalias ptr @g_malloc(i64 noundef %10) #16
  %12 = load ptr, ptr %6, align 8
  %13 = load ptr, ptr %12, align 8
  %14 = load i64, ptr %5, align 8
  %15 = zext i32 %.012 to i64
  %16 = mul i64 %14, %15
  %17 = getelementptr i8, ptr %13, i64 %16
  %18 = icmp ne i64 %10, -1
  tail call void @llvm.assume(i1 %18)
  tail call void @llvm.memcpy.p0.p0.i64(ptr noundef align 1 %11, ptr noundef align 1 %17, i64 noundef %10, i1 noundef false) #17
  %19 = zext i32 %9 to i64
  %20 = mul i64 %14, %19
  %21 = getelementptr i8, ptr %13, i64 %20
  tail call void @llvm.memcpy.p0.p0.i64(ptr noundef align 1 %17, ptr noundef align 1 %21, i64 noundef %10, i1 noundef false) #17
  %22 = load ptr, ptr %6, align 8
  %23 = load ptr, ptr %22, align 8
  %24 = load i64, ptr %5, align 8
  %25 = mul i64 %24, %19
  %26 = getelementptr i8, ptr %23, i64 %25
  tail call void @llvm.memcpy.p0.p0.i64(ptr noundef align 1 %26, ptr noundef align 1 %11, i64 noundef %10, i1 noundef false) #17
  tail call void @g_free(ptr noundef %11)
  %27 = load ptr, ptr %7, align 8
  %28 = load ptr, ptr %27, align 8
  %29 = getelementptr i8, ptr %28, i64 %15
  %30 = load i8, ptr %29, align 1, !range !9, !noundef !10
  %31 = getelementptr i8, ptr %28, i64 %19
  %32 = load i8, ptr %31, align 1, !range !9, !noundef !10
  store i8 %32, ptr %29, align 1
  %33 = load ptr, ptr %7, align 8
  %34 = load ptr, ptr %33, align 8
  %35 = getelementptr i8, ptr %34, i64 %19
  store i8 %30, ptr %35, align 1
  %.not = icmp eq i32 %9, %2
  br i1 %.not, label %._crit_edge, label %8, !llvm.loop !12

._crit_edge:                                      ; preds = %8, %3
  ret void
}